target datalayout = "e-m:e-p270:32:32-p271:32:32-p272:64:64-i64:64-i128:128-f80:128-n8:16:32:64-S128"
target triple = "x86_64-pc-linux-gnu"

%struct._zend_executor_globals = type { %struct._zval_struct, %struct._zval_struct, [32 x ptr], ptr, ptr, %struct._zend_array, %struct._zend_array, ptr, i32, i32, ptr, ptr, ptr, ptr, ptr, ptr, i64, ptr, ptr, i32, i32, i64, i32, i32, i32, i8, i8, %struct.zend_atomic_bool_s, %struct.zend_atomic_bool_s, ptr, i64, ptr, ptr, %struct._zend_array, %struct._zend_array, i32, i8, %struct._zval_struct, %struct._zval_struct, %struct._zend_stack, %struct._zend_stack, %struct._zend_stack, ptr, i32, i32, i64, ptr, ptr, ptr, %struct._zend_objects_store, ptr, ptr, ptr, [3 x %struct._zend_op], ptr, i8, i8, i64, i32, i32, ptr, [16 x %struct._HashTableIterator], ptr, %union._zend_function, %struct._zend_op, %struct._zend_array, i64, %struct.zend_get_gc_buffer, ptr, ptr, ptr, i64, i8, i32, ptr, ptr, i64, %struct._zend_call_stack, i64, i64, [6 x ptr] }
%struct.zend_atomic_bool_s = type { i8 }
%struct._zval_struct = type { %union._zend_value, %union.anon, %union.anon.2 }
%union._zend_value = type { i64 }
%union.anon = type { i32 }
%union.anon.2 = type { i32 }
%struct._zend_stack = type { i32, i32, i32, ptr }
%struct._zend_objects_store = type { ptr, i32, i32, i32 }
%struct._HashTableIterator = type { ptr, i32, i32 }
%union._zend_function = type { %struct._zend_op_array }
%struct._zend_op_array = type { i8, [3 x i8], i32, ptr, ptr, ptr, i32, i32, ptr, ptr, ptr, ptr, i32, i32, i32, i32, ptr, ptr, ptr, ptr, ptr, i32, i32, ptr, ptr, ptr, i32, i32, i32, i32, ptr, ptr, [6 x ptr] }
%struct._zend_op = type { ptr, %union._znode_op, %union._znode_op, %union._znode_op, i32, i32, i8, i8, i8, i8 }
%union._znode_op = type { i32 }
%struct._zend_array = type { %struct._zend_refcounted_h, %union.anon.4, i32, %union.anon.6, i32, i32, i32, i32, i64, ptr }
%struct._zend_refcounted_h = type { i32, %union.anon.3 }
%union.anon.3 = type { i32 }
%union.anon.4 = type { i32 }
%union.anon.6 = type { ptr }
%struct.zend_get_gc_buffer = type { ptr, ptr, ptr }
%struct._zend_call_stack = type { ptr, i64 }
%struct._spl_array_object = type { %struct._zval_struct, i32, i32, i8, i8, ptr, ptr, ptr, ptr, ptr, ptr, ptr, %struct._zend_object }
%struct._zend_object = type { %struct._zend_refcounted_h, i32, ptr, ptr, ptr, [1 x %struct._zval_struct] }
%struct._zend_class_entry = type { i8, ptr, %union.anon.8, i32, i32, i32, i32, ptr, ptr, ptr, %struct._zend_array, %struct._zend_array, %struct._zend_array, ptr, ptr, ptr, ptr, ptr, ptr, ptr, ptr, ptr, ptr, ptr, ptr, ptr, ptr, ptr, ptr, ptr, ptr, ptr, %union.anon.9, ptr, ptr, ptr, ptr, i32, i32, %union.anon.10, ptr, ptr, ptr, ptr, i32, ptr, ptr, %union.anon.11 }
%union.anon.8 = type { ptr }
%union.anon.9 = type { ptr }
%union.anon.10 = type { ptr }
%union.anon.11 = type { %struct.anon.12 }
%struct.anon.12 = type { ptr, i32, i32 }
%struct._zend_reference = type { %struct._zend_refcounted_h, %struct._zval_struct, %union.zend_property_info_source_list }
%union.zend_property_info_source_list = type { ptr }

@executor_globals = external global %struct._zend_executor_globals, align 8
@.str.25 = private unnamed_addr constant [10 x i8] c"offsetGet\00", align 1

; Function Attrs: nounwind uwtable
define internal i32 @spl_array_has_dimension(ptr noundef %0, ptr noundef %1, i32 noundef %2) #0 {
  %4 = alloca ptr, align 8
  %5 = alloca ptr, align 8
  %6 = alloca i32, align 4
  store ptr %0, ptr %4, align 8
  store ptr %1, ptr %5, align 8
  store i32 %2, ptr %6, align 4
  %7 = load ptr, ptr %4, align 8
  %8 = load ptr, ptr %5, align 8
  %9 = load i32, ptr %6, align 4
  %10 = call zeroext i1 @spl_array_has_dimension_ex(i1 noundef zeroext true, ptr noundef %7, ptr noundef %8, i32 noundef %9)
  %11 = zext i1 %10 to i32
  ret i32 %11
}

; Function Attrs: nounwind uwtable
define internal ptr @spl_array_from_obj(ptr noundef %0) #0 {
  %2 = alloca ptr, align 8
  store ptr %0, ptr %2, align 8
  %3 = load ptr, ptr %2, align 8
  %4 = getelementptr inbounds i8, ptr %3, i64 -88
  ret ptr %4
}

; Function Attrs: nounwind uwtable
define internal ptr @spl_array_read_dimension_ex(i32 noundef %0, ptr noundef %1, ptr noundef %2, i32 noundef %3, ptr noundef %4) #0 {
  %6 = alloca ptr, align 8
  %7 = alloca i32, align 4
  %8 = alloca ptr, align 8
  %9 = alloca ptr, align 8
  %10 = alloca ptr, align 8
  %11 = alloca ptr, align 8
  %12 = alloca ptr, align 8
  %13 = alloca ptr, align 8
  %14 = alloca ptr, align 8
  %15 = alloca ptr, align 8
  %16 = alloca ptr, align 8
  %17 = alloca i32, align 4
  %18 = alloca ptr, align 8
  %19 = alloca ptr, align 8
  %20 = alloca i32, align 4
  %21 = alloca ptr, align 8
  %22 = alloca ptr, align 8
  %23 = alloca ptr, align 8
  %24 = alloca %struct._zval_struct, align 8
  %25 = alloca ptr, align 8
  %26 = alloca ptr, align 8
  %27 = alloca ptr, align 8
  %28 = alloca ptr, align 8
  %29 = alloca i32, align 4
  store i32 %0, ptr %17, align 4
  store ptr %1, ptr %18, align 8
  store ptr %2, ptr %19, align 8
  store i32 %3, ptr %20, align 4
  store ptr %4, ptr %21, align 8
  %30 = load ptr, ptr %18, align 8
  %31 = call ptr @spl_array_from_obj(ptr noundef %30)
  store ptr %31, ptr %22, align 8
  %32 = load i32, ptr %17, align 4
  %33 = icmp ne i32 %32, 0
  br i1 %33, label %34, label %97

34:                                               ; preds = %5
  %35 = load ptr, ptr %22, align 8
  %36 = getelementptr inbounds %struct._spl_array_object, ptr %35, i32 0, i32 6
  %37 = load ptr, ptr %36, align 8
  %38 = icmp ne ptr %37, null
  br i1 %38, label %47, label %39

39:                                               ; preds = %34
  %40 = load i32, ptr %20, align 4
  %41 = icmp eq i32 %40, 3
  br i1 %41, label %42, label %97

42:                                               ; preds = %39
  %43 = load ptr, ptr %22, align 8
  %44 = getelementptr inbounds %struct._spl_array_object, ptr %43, i32 0, i32 8
  %45 = load ptr, ptr %44, align 8
  %46 = icmp ne ptr %45, null
  br i1 %46, label %47, label %97

47:                                               ; preds = %42, %34
  %48 = load i32, ptr %20, align 4
  %49 = icmp eq i32 %48, 3
  br i1 %49, label %50, label %57

50:                                               ; preds = %47
  %51 = load ptr, ptr %18, align 8
  %52 = load ptr, ptr %19, align 8
  %53 = call i32 @spl_array_has_dimension(ptr noundef %51, ptr noundef %52, i32 noundef 0)
  %54 = icmp ne i32 %53, 0
  br i1 %54, label %56, label %55

55:                                               ; preds = %50
  store ptr @executor_globals, ptr %16, align 8
  br label %171

56:                                               ; preds = %50
  br label %57

57:                                               ; preds = %56, %47
  %58 = load ptr, ptr %22, align 8
  %59 = getelementptr inbounds %struct._spl_array_object, ptr %58, i32 0, i32 6
  %60 = load ptr, ptr %59, align 8
  %61 = icmp ne ptr %60, null
  br i1 %61, label %62, label %96

62:                                               ; preds = %57
  %63 = load ptr, ptr %19, align 8
  %64 = icmp ne ptr %63, null
  br i1 %64, label %69, label %65

65:                                               ; preds = %62
  br label %66

66:                                               ; preds = %65
  %67 = getelementptr inbounds %struct._zval_struct, ptr %24, i32 0, i32 1
  store i32 0, ptr %67, align 8
  br label %68

68:                                               ; preds = %66
  store ptr %24, ptr %19, align 8
  br label %69

69:                                               ; preds = %68, %62
  %70 = load ptr, ptr %18, align 8
  %71 = load ptr, ptr %18, align 8
  %72 = getelementptr inbounds %struct._zend_object, ptr %71, i32 0, i32 2
  %73 = load ptr, ptr %72, align 8
  %74 = load ptr, ptr %22, align 8
  %75 = getelementptr inbounds %struct._spl_array_object, ptr %74, i32 0, i32 6
  %76 = load ptr, ptr %21, align 8
  %77 = load ptr, ptr %19, align 8
  store ptr %70, ptr %8, align 8
  store ptr %73, ptr %9, align 8
  store ptr %75, ptr %10, align 8
  store ptr @.str.25, ptr %11, align 8
  store ptr %76, ptr %12, align 8
  store ptr %77, ptr %13, align 8
  %78 = load ptr, ptr %8, align 8
  %79 = load ptr, ptr %9, align 8
  %80 = load ptr, ptr %10, align 8
  %81 = load ptr, ptr %11, align 8
  %82 = load ptr, ptr %11, align 8
  %83 = call i64 @strlen(ptr noundef %82) #11
  %84 = load ptr, ptr %12, align 8
  %85 = load ptr, ptr %13, align 8
  %86 = call ptr @zend_call_method(ptr noundef %78, ptr noundef %79, ptr noundef %80, ptr noundef %81, i64 noundef %83, ptr noundef %84, i32 noundef 1, ptr noundef %85, ptr noundef null) #12
  %87 = load ptr, ptr %21, align 8
  store ptr %87, ptr %14, align 8
  %88 = load ptr, ptr %14, align 8
  %89 = getelementptr inbounds %struct._zval_struct, ptr %88, i32 0, i32 1
  %90 = load i8, ptr %89, align 8
  %91 = zext i8 %90 to i32
  %92 = icmp eq i32 %91, 0
  br i1 %92, label %95, label %93

93:                                               ; preds = %69
  %94 = load ptr, ptr %21, align 8
  store ptr %94, ptr %16, align 8
  br label %171

95:                                               ; preds = %69
  store ptr @executor_globals, ptr %16, align 8
  br label %171

96:                                               ; preds = %57
  br label %97

97:                                               ; preds = %96, %42, %39, %5
  %98 = load i32, ptr %17, align 4
  %99 = icmp ne i32 %98, 0
  %100 = load ptr, ptr %22, align 8
  %101 = load ptr, ptr %18, align 8
  %102 = getelementptr inbounds %struct._zend_object, ptr %101, i32 0, i32 2
  %103 = load ptr, ptr %102, align 8
  %104 = getelementptr inbounds %struct._zend_class_entry, ptr %103, i32 0, i32 1
  %105 = load ptr, ptr %104, align 8
  %106 = load ptr, ptr %19, align 8
  %107 = load i32, ptr %20, align 4
  %108 = call ptr @spl_array_get_dimension_ptr(i1 noundef zeroext %99, ptr noundef %100, ptr noundef %105, ptr noundef %106, i32 noundef %107)
  store ptr %108, ptr %23, align 8
  %109 = load i32, ptr %20, align 4
  %110 = icmp eq i32 %109, 1
  br i1 %110, label %117, label %111

111:                                              ; preds = %97
  %112 = load i32, ptr %20, align 4
  %113 = icmp eq i32 %112, 2
  br i1 %113, label %117, label %114

114:                                              ; preds = %111
  %115 = load i32, ptr %20, align 4
  %116 = icmp eq i32 %115, 5
  br i1 %116, label %117, label %169

117:                                              ; preds = %114, %111, %97
  %118 = load ptr, ptr %23, align 8
  store ptr %118, ptr %15, align 8
  %119 = load ptr, ptr %15, align 8
  %120 = getelementptr inbounds %struct._zval_struct, ptr %119, i32 0, i32 1
  %121 = load i8, ptr %120, align 8
  %122 = zext i8 %121 to i32
  %123 = icmp eq i32 %122, 10
  br i1 %123, label %169, label %124

124:                                              ; preds = %117
  %125 = load ptr, ptr %23, align 8
  %126 = icmp ne ptr %125, @executor_globals
  %127 = xor i1 %126, true
  %128 = xor i1 %127, true
  %129 = zext i1 %128 to i32
  %130 = sext i32 %129 to i64
  %131 = icmp ne i64 %130, 0
  br i1 %131, label %132, label %169

132:                                              ; preds = %124
  br label %133

133:                                              ; preds = %132
  %134 = call noalias ptr @_emalloc_32()
  store ptr %134, ptr %25, align 8
  %135 = load ptr, ptr %25, align 8
  %136 = getelementptr inbounds %struct._zend_reference, ptr %135, i32 0, i32 0
  store ptr %136, ptr %6, align 8
  store i32 1, ptr %7, align 4
  %137 = load i32, ptr %7, align 4
  %138 = load ptr, ptr %6, align 8
  store i32 %137, ptr %138, align 4
  %139 = load ptr, ptr %25, align 8
  %140 = getelementptr inbounds %struct._zend_reference, ptr %139, i32 0, i32 0
  %141 = getelementptr inbounds %struct._zend_refcounted_h, ptr %140, i32 0, i32 1
  store i32 26, ptr %141, align 4
  br label %142

142:                                              ; preds = %133
  %143 = load ptr, ptr %25, align 8
  %144 = getelementptr inbounds %struct._zend_reference, ptr %143, i32 0, i32 1
  store ptr %144, ptr %26, align 8
  %145 = load ptr, ptr %23, align 8
  store ptr %145, ptr %27, align 8
  %146 = load ptr, ptr %27, align 8
  %147 = getelementptr inbounds %struct._zval_struct, ptr %146, i32 0, i32 0
  %148 = load ptr, ptr %147, align 8
  store ptr %148, ptr %28, align 8
  %149 = load ptr, ptr %27, align 8
  %150 = getelementptr inbounds %struct._zval_struct, ptr %149, i32 0, i32 1
  %151 = load i32, ptr %150, align 8
  store i32 %151, ptr %29, align 4
  br label %152

152:                                              ; preds = %142
  %153 = load ptr, ptr %28, align 8
  %154 = load ptr, ptr %26, align 8
  %155 = getelementptr inbounds %struct._zval_struct, ptr %154, i32 0, i32 0
  store ptr %153, ptr %155, align 8
  %156 = load i32, ptr %29, align 4
  %157 = load ptr, ptr %26, align 8
  %158 = getelementptr inbounds %struct._zval_struct, ptr %157, i32 0, i32 1
  store i32 %156, ptr %158, align 8
  br label %159

159:                                              ; preds = %152
  br label %160

160:                                              ; preds = %159
  %161 = load ptr, ptr %25, align 8
  %162 = getelementptr inbounds %struct._zend_reference, ptr %161, i32 0, i32 2
  store ptr null, ptr %162, align 8
  %163 = load ptr, ptr %25, align 8
  %164 = load ptr, ptr %23, align 8
  %165 = getelementptr inbounds %struct._zval_struct, ptr %164, i32 0, i32 0
  store ptr %163, ptr %165, align 8
  %166 = load ptr, ptr %23, align 8
  %167 = getelementptr inbounds %struct._zval_struct, ptr %166, i32 0, i32 1
  store i32 266, ptr %167, align 8
  br label %168

168:                                              ; preds = %160
  br label %169

169:                                              ; preds = %168, %124, %117, %114
  %170 = load ptr, ptr %23, align 8
  store ptr %170, ptr %16, align 8
  br label %171

171:                                              ; preds = %169, %95, %93, %55
  %172 = load ptr, ptr %16, align 8
  ret ptr %172
}

; Function Attrs: nounwind uwtable
define internal ptr @spl_array_read_dimension(ptr noundef %0, ptr noundef %1, i32 noundef %2, ptr noundef %3) #0 {
  %5 = alloca ptr, align 8
  %6 = alloca ptr, align 8
  %7 = alloca i32, align 4
  %8 = alloca ptr, align 8
  store ptr %0, ptr %5, align 8
  store ptr %1, ptr %6, align 8
  store i32 %2, ptr %7, align 4
  store ptr %3, ptr %8, align 8
  %9 = load ptr, ptr %5, align 8
  %10 = load ptr, ptr %6, align 8
  %11 = load i32, ptr %7, align 4
  %12 = load ptr, ptr %8, align 8
  %13 = call ptr @spl_array_read_dimension_ex(i32 noundef 1, ptr noundef %9, ptr noundef %10, i32 noundef %11, ptr noundef %12)
  ret ptr %13
}