; Function Attrs: nounwind uwtable
define internal ptr @spl_array_read_dimension(ptr noundef %0, ptr noundef %1, i32 noundef %2, ptr noundef %3) #0 {
  %5 = alloca %struct._zval_struct, align 8
  call void @llvm.lifetime.start.p0(i64 16, ptr nonnull %5)
  %6 = getelementptr inbounds i8, ptr %0, i64 -88
  %7 = getelementptr inbounds i8, ptr %0, i64 -48
  %8 = load ptr, ptr %7, align 8
  %.not.i = icmp eq ptr %8, null
  %9 = icmp eq i32 %2, 3
  br i1 %.not.i, label %10, label %14

10:                                               ; preds = %4
  br i1 %9, label %11, label %31

11:                                               ; preds = %10
  %12 = getelementptr inbounds i8, ptr %0, i64 -32
  %13 = load ptr, ptr %12, align 8
  %.not59.i = icmp eq ptr %13, null
  br i1 %.not59.i, label %.thread66.i, label %.thread.i

14:                                               ; preds = %4
  br i1 %9, label %.thread.i, label %.thread64.i

.thread.i:                                        ; preds = %14, %11
  %15 = tail call fastcc zeroext i1 @spl_array_has_dimension_ex(i1 noundef zeroext true, ptr noundef nonnull %0, ptr noundef %1, i32 noundef 0)
  br i1 %15, label %16, label %spl_array_read_dimension_ex.exit

16:                                               ; preds = %.thread.i
  %.pr.i = load ptr, ptr %7, align 8
  %.not61.i = icmp eq ptr %.pr.i, null
  br i1 %.not61.i, label %.thread66.i, label %.thread64.i

.thread64.i:                                      ; preds = %16, %14
  %.not63.i = icmp eq ptr %1, null
  br i1 %.not63.i, label %17, label %19

17:                                               ; preds = %.thread64.i
  %18 = getelementptr inbounds i8, ptr %5, i64 8
  store i32 0, ptr %18, align 8
  br label %19

19:                                               ; preds = %17, %.thread64.i
  %.056.i = phi ptr [ %1, %.thread64.i ], [ %5, %17 ]
  %20 = getelementptr inbounds i8, ptr %0, i64 16
  %21 = load ptr, ptr %20, align 8
  %22 = call ptr @zend_call_method(ptr noundef nonnull %0, ptr noundef %21, ptr noundef nonnull %7, ptr noundef nonnull @.str.25, i64 noundef 9, ptr noundef %3, i32 noundef 1, ptr noundef nonnull %.056.i, ptr noundef null) #11
  %23 = getelementptr inbounds i8, ptr %3, i64 8
  %24 = load i8, ptr %23, align 8
  %25 = icmp eq i8 %24, 0
  %executor_globals..i = select i1 %25, ptr @executor_globals, ptr %3
  br label %spl_array_read_dimension_ex.exit

.thread66.i:                                      ; preds = %16, %11
  %26 = getelementptr inbounds i8, ptr %0, i64 16
  %27 = load ptr, ptr %26, align 8
  %28 = getelementptr inbounds i8, ptr %27, i64 8
  %29 = load ptr, ptr %28, align 8
  %30 = tail call fastcc ptr @spl_array_get_dimension_ptr(ptr noundef nonnull %6, ptr noundef %29, ptr noundef %1, i32 noundef %2)
  br label %spl_array_read_dimension_ex.exit

31:                                               ; preds = %10
  %32 = getelementptr inbounds i8, ptr %0, i64 16
  %33 = load ptr, ptr %32, align 8
  %34 = getelementptr inbounds i8, ptr %33, i64 8
  %35 = load ptr, ptr %34, align 8
  %36 = tail call fastcc ptr @spl_array_get_dimension_ptr(ptr noundef nonnull %6, ptr noundef %35, ptr noundef %1, i32 noundef %2)
  switch i32 %2, label %spl_array_read_dimension_ex.exit [
    i32 5, label %37
    i32 2, label %37
    i32 1, label %37
  ]

37:                                               ; preds = %31, %31, %31
  %38 = getelementptr inbounds i8, ptr %36, i64 8
  %39 = load i8, ptr %38, align 8
  %40 = icmp eq i8 %39, 10
  %.not62.i = icmp eq ptr %36, @executor_globals
  %or.cond.i = select i1 %40, i1 true, i1 %.not62.i
  br i1 %or.cond.i, label %spl_array_read_dimension_ex.exit, label %41

41:                                               ; preds = %37
  %42 = tail call noalias ptr @_emalloc_32() #11
  store i32 1, ptr %42, align 4
  %43 = getelementptr inbounds i8, ptr %42, i64 4
  store i32 26, ptr %43, align 4
  %44 = getelementptr inbounds i8, ptr %42, i64 8
  %45 = load ptr, ptr %36, align 8
  %46 = load i32, ptr %38, align 8
  store ptr %45, ptr %44, align 8
  %47 = getelementptr inbounds i8, ptr %42, i64 16
  store i32 %46, ptr %47, align 8
  %48 = getelementptr inbounds i8, ptr %42, i64 24
  store ptr null, ptr %48, align 8
  store ptr %42, ptr %36, align 8
  store i32 266, ptr %38, align 8
  br label %spl_array_read_dimension_ex.exit

spl_array_read_dimension_ex.exit:                 ; preds = %.thread.i, %19, %.thread66.i, %31, %37, %41
  %.0.i = phi ptr [ @executor_globals, %.thread.i ], [ %executor_globals..i, %19 ], [ %36, %31 ], [ %36, %41 ], [ %36, %37 ], [ %30, %.thread66.i ]
  call void @llvm.lifetime.end.p0(i64 16, ptr nonnull %5)
  ret ptr %.0.i
}